target datalayout = "e-m:e-p270:32:32-p271:32:32-p272:64:64-i64:64-i128:128-f80:128-n8:16:32:64-S128"
target triple = "x86_64-pc-linux-gnu"

%struct.ident_t = type { i32, i32, i32, i32, ptr }
%"class.std::vector.92" = type { %"struct.std::_Vector_base.93" }
%"struct.std::_Vector_base.93" = type { %"struct.std::_Vector_base<int, std::allocator<int>>::_Vector_impl" }
%"struct.std::_Vector_base<int, std::allocator<int>>::_Vector_impl" = type { %"struct.std::_Vector_base<int, std::allocator<int>>::_Vector_impl_data" }
%"struct.std::_Vector_base<int, std::allocator<int>>::_Vector_impl_data" = type { ptr, ptr, ptr }
%"class.std::vector.107" = type { %"struct.std::_Vector_base.108" }
%"struct.std::_Vector_base.108" = type { %"struct.std::_Vector_base<float, gmx::DefaultInitializationAllocator<float>>::_Vector_impl" }
%"struct.std::_Vector_base<float, gmx::DefaultInitializationAllocator<float>>::_Vector_impl" = type { %"struct.std::_Vector_base<float, gmx::DefaultInitializationAllocator<float>>::_Vector_impl_data" }
%"struct.std::_Vector_base<float, gmx::DefaultInitializationAllocator<float>>::_Vector_impl_data" = type { ptr, ptr, ptr }
%class.PmeAtomComm = type { i32, i32, i32, ptr, %"class.std::vector.136", i32, %"class.std::vector.92", %"class.std::vector.141", %"class.std::vector.144", i32, %"class.gmx::ArrayRef", %"class.gmx::ArrayRef.149", %"class.gmx::ArrayRef.152", %"class.std::vector.155", %"class.std::vector.107", %"class.std::vector.155", i8, i32, %"class.std::vector.158", %"class.std::vector.155", i32, %"class.std::vector.141", %"class.std::vector.164", %"class.std::vector.169" }
%"class.std::vector.136" = type { %"struct.std::_Vector_base.137" }
%"struct.std::_Vector_base.137" = type { %"struct.std::_Vector_base<SlabCommSetup, std::allocator<SlabCommSetup>>::_Vector_impl" }
%"struct.std::_Vector_base<SlabCommSetup, std::allocator<SlabCommSetup>>::_Vector_impl" = type { %"struct.std::_Vector_base<SlabCommSetup, std::allocator<SlabCommSetup>>::_Vector_impl_data" }
%"struct.std::_Vector_base<SlabCommSetup, std::allocator<SlabCommSetup>>::_Vector_impl_data" = type { ptr, ptr, ptr }
%"class.std::vector.144" = type { %"struct.std::_Vector_base.145" }
%"struct.std::_Vector_base.145" = type { %"struct.std::_Vector_base<std::vector<int>, std::allocator<std::vector<int>>>::_Vector_impl" }
%"struct.std::_Vector_base<std::vector<int>, std::allocator<std::vector<int>>>::_Vector_impl" = type { %"struct.std::_Vector_base<std::vector<int>, std::allocator<std::vector<int>>>::_Vector_impl_data" }
%"struct.std::_Vector_base<std::vector<int>, std::allocator<std::vector<int>>>::_Vector_impl_data" = type { ptr, ptr, ptr }
%"class.gmx::ArrayRef" = type { %"struct.gmx::ArrayRefIter", %"struct.gmx::ArrayRefIter" }
%"struct.gmx::ArrayRefIter" = type { ptr }
%"class.gmx::ArrayRef.149" = type { %"struct.gmx::ArrayRefIter.150", %"struct.gmx::ArrayRefIter.150" }
%"struct.gmx::ArrayRefIter.150" = type { ptr }
%"class.gmx::ArrayRef.152" = type { %"struct.gmx::ArrayRefIter.153", %"struct.gmx::ArrayRefIter.153" }
%"struct.gmx::ArrayRefIter.153" = type { ptr }
%"class.std::vector.158" = type { %"struct.std::_Vector_base.159" }
%"struct.std::_Vector_base.159" = type { %"struct.std::_Vector_base<gmx::BasicVector<int>, gmx::DefaultInitializationAllocator<gmx::BasicVector<int>>>::_Vector_impl" }
%"struct.std::_Vector_base<gmx::BasicVector<int>, gmx::DefaultInitializationAllocator<gmx::BasicVector<int>>>::_Vector_impl" = type { %"struct.std::_Vector_base<gmx::BasicVector<int>, gmx::DefaultInitializationAllocator<gmx::BasicVector<int>>>::_Vector_impl_data" }
%"struct.std::_Vector_base<gmx::BasicVector<int>, gmx::DefaultInitializationAllocator<gmx::BasicVector<int>>>::_Vector_impl_data" = type { ptr, ptr, ptr }
%"class.std::vector.155" = type { %"struct.std::_Vector_base.156" }
%"struct.std::_Vector_base.156" = type { %"struct.std::_Vector_base<gmx::BasicVector<float>, gmx::DefaultInitializationAllocator<gmx::BasicVector<float>>>::_Vector_impl" }
%"struct.std::_Vector_base<gmx::BasicVector<float>, gmx::DefaultInitializationAllocator<gmx::BasicVector<float>>>::_Vector_impl" = type { %"struct.std::_Vector_base<gmx::BasicVector<float>, gmx::DefaultInitializationAllocator<gmx::BasicVector<float>>>::_Vector_impl_data" }
%"struct.std::_Vector_base<gmx::BasicVector<float>, gmx::DefaultInitializationAllocator<gmx::BasicVector<float>>>::_Vector_impl_data" = type { ptr, ptr, ptr }
%"class.std::vector.141" = type { %"struct.std::_Vector_base.142" }
%"struct.std::_Vector_base.142" = type { %"struct.std::_Vector_base<int, gmx::DefaultInitializationAllocator<int>>::_Vector_impl" }
%"struct.std::_Vector_base<int, gmx::DefaultInitializationAllocator<int>>::_Vector_impl" = type { %"struct.std::_Vector_base<int, gmx::DefaultInitializationAllocator<int>>::_Vector_impl_data" }
%"struct.std::_Vector_base<int, gmx::DefaultInitializationAllocator<int>>::_Vector_impl_data" = type { ptr, ptr, ptr }
%"class.std::vector.164" = type { %"struct.std::_Vector_base.165" }
%"struct.std::_Vector_base.165" = type { %"struct.std::_Vector_base<AtomToThreadMap, std::allocator<AtomToThreadMap>>::_Vector_impl" }
%"struct.std::_Vector_base<AtomToThreadMap, std::allocator<AtomToThreadMap>>::_Vector_impl" = type { %"struct.std::_Vector_base<AtomToThreadMap, std::allocator<AtomToThreadMap>>::_Vector_impl_data" }
%"struct.std::_Vector_base<AtomToThreadMap, std::allocator<AtomToThreadMap>>::_Vector_impl_data" = type { ptr, ptr, ptr }
%"class.std::vector.169" = type { %"struct.std::_Vector_base.170" }
%"struct.std::_Vector_base.170" = type { %"struct.std::_Vector_base<splinedata_t, std::allocator<splinedata_t>>::_Vector_impl" }
%"struct.std::_Vector_base<splinedata_t, std::allocator<splinedata_t>>::_Vector_impl" = type { %"struct.std::_Vector_base<splinedata_t, std::allocator<splinedata_t>>::_Vector_impl_data" }
%"struct.std::_Vector_base<splinedata_t, std::allocator<splinedata_t>>::_Vector_impl_data" = type { ptr, ptr, ptr }
%struct.AtomToThreadMap = type { ptr, %"class.std::vector.92", %"class.std::vector.141" }

@1 = private unnamed_addr constant %struct.ident_t { i32 0, i32 514, i32 0, i32 22, ptr @0 }, align 8
@_ZTISt9exception = external constant ptr

; Function Attrs: mustprogress nounwind uwtable
define linkonce_odr void @_ZNSt12_Destroy_auxILb1EE9__destroyIPiEEvT_S3_(ptr noundef %0, ptr noundef %1) #3 comdat align 2 {
  %3 = alloca ptr, align 8
  %4 = alloca ptr, align 8
  store ptr %0, ptr %3, align 8
  store ptr %1, ptr %4, align 8
  ret void
}

; Function Attrs: mustprogress uwtable
define linkonce_odr void @_ZSt8_DestroyIPiEvT_S1_(ptr noundef %0, ptr noundef %1) #0 comdat {
  %3 = alloca ptr, align 8
  %4 = alloca ptr, align 8
  store ptr %0, ptr %3, align 8
  store ptr %1, ptr %4, align 8
  %5 = load ptr, ptr %3, align 8
  %6 = load ptr, ptr %4, align 8
  call void @_ZNSt12_Destroy_auxILb1EE9__destroyIPiEEvT_S3_(ptr noundef %5, ptr noundef %6)
  ret void
}

; Function Attrs: mustprogress uwtable
define linkonce_odr void @_ZSt8_DestroyIPiiEvT_S1_RSaIT0_E(ptr noundef %0, ptr noundef %1, ptr noundef nonnull align 1 dereferenceable(1) %2) #0 comdat {
  %4 = alloca ptr, align 8
  %5 = alloca ptr, align 8
  %6 = alloca ptr, align 8
  store ptr %0, ptr %4, align 8
  store ptr %1, ptr %5, align 8
  store ptr %2, ptr %6, align 8
  %7 = load ptr, ptr %4, align 8
  %8 = load ptr, ptr %5, align 8
  call void @_ZSt8_DestroyIPiEvT_S1_(ptr noundef %7, ptr noundef %8)
  ret void
}

; Function Attrs: mustprogress nounwind uwtable
define linkonce_odr noundef nonnull align 1 dereferenceable(1) ptr @_ZNSt12_Vector_baseIiSaIiEE19_M_get_Tp_allocatorEv(ptr noundef nonnull align 8 dereferenceable(24) %0) #3 comdat align 2 {
  %2 = alloca ptr, align 8
  store ptr %0, ptr %2, align 8
  %3 = load ptr, ptr %2, align 8
  %4 = getelementptr inbounds %"struct.std::_Vector_base.93", ptr %3, i32 0, i32 0
  ret ptr %4
}

; Function Attrs: mustprogress nounwind uwtable
define linkonce_odr noundef ptr @_ZNKSt6vectorIiSaIiEE11_M_data_ptrIiEEPT_S4_(ptr noundef nonnull align 8 dereferenceable(24) %0, ptr noundef %1) #3 comdat align 2 {
  %3 = alloca ptr, align 8
  %4 = alloca ptr, align 8
  store ptr %0, ptr %3, align 8
  store ptr %1, ptr %4, align 8
  %5 = load ptr, ptr %4, align 8
  ret ptr %5
}

; Function Attrs: mustprogress nounwind uwtable
define linkonce_odr void @_ZNSt6vectorIiSaIiEE15_M_erase_at_endEPi(ptr noundef nonnull align 8 dereferenceable(24) %0, ptr noundef %1) #3 comdat align 2 personality ptr @__gxx_personality_v0 {
  %3 = alloca ptr, align 8
  %4 = alloca ptr, align 8
  %5 = alloca i64, align 8
  store ptr %0, ptr %3, align 8
  store ptr %1, ptr %4, align 8
  %6 = load ptr, ptr %3, align 8
  %7 = getelementptr inbounds %"struct.std::_Vector_base.93", ptr %6, i32 0, i32 0
  %8 = getelementptr inbounds %"struct.std::_Vector_base<int, std::allocator<int>>::_Vector_impl_data", ptr %7, i32 0, i32 1
  %9 = load ptr, ptr %8, align 8
  %10 = load ptr, ptr %4, align 8
  %11 = ptrtoint ptr %9 to i64
  %12 = ptrtoint ptr %10 to i64
  %13 = sub i64 %11, %12
  %14 = sdiv exact i64 %13, 4
  store i64 %14, ptr %5, align 8
  %15 = load i64, ptr %5, align 8
  %16 = icmp ne i64 %15, 0
  br i1 %16, label %17, label %27

17:                                               ; preds = %2
  %18 = load ptr, ptr %4, align 8
  %19 = getelementptr inbounds %"struct.std::_Vector_base.93", ptr %6, i32 0, i32 0
  %20 = getelementptr inbounds %"struct.std::_Vector_base<int, std::allocator<int>>::_Vector_impl_data", ptr %19, i32 0, i32 1
  %21 = load ptr, ptr %20, align 8
  %22 = call noundef nonnull align 1 dereferenceable(1) ptr @_ZNSt12_Vector_baseIiSaIiEE19_M_get_Tp_allocatorEv(ptr noundef nonnull align 8 dereferenceable(24) %6) #5
  invoke void @_ZSt8_DestroyIPiiEvT_S1_RSaIT0_E(ptr noundef %18, ptr noundef %21, ptr noundef nonnull align 1 dereferenceable(1) %22)
          to label %23 unwind label %28

23:                                               ; preds = %17
  %24 = load ptr, ptr %4, align 8
  %25 = getelementptr inbounds %"struct.std::_Vector_base.93", ptr %6, i32 0, i32 0
  %26 = getelementptr inbounds %"struct.std::_Vector_base<int, std::allocator<int>>::_Vector_impl_data", ptr %25, i32 0, i32 1
  store ptr %24, ptr %26, align 8
  br label %27

27:                                               ; preds = %23, %2
  ret void

28:                                               ; preds = %17
  %29 = landingpad { ptr, i32 }
          catch ptr null
  %30 = extractvalue { ptr, i32 } %29, 0
  call void @__clang_call_terminate(ptr %30) #17
  unreachable
}

; Function Attrs: mustprogress nounwind uwtable
define linkonce_odr noundef i64 @_ZNKSt6vectorIiSaIiEE4sizeEv(ptr noundef nonnull align 8 dereferenceable(24) %0) #3 comdat align 2 {
  %2 = alloca ptr, align 8
  store ptr %0, ptr %2, align 8
  %3 = load ptr, ptr %2, align 8
  %4 = getelementptr inbounds %"struct.std::_Vector_base.93", ptr %3, i32 0, i32 0
  %5 = getelementptr inbounds %"struct.std::_Vector_base<int, std::allocator<int>>::_Vector_impl_data", ptr %4, i32 0, i32 1
  %6 = load ptr, ptr %5, align 8
  %7 = getelementptr inbounds %"struct.std::_Vector_base.93", ptr %3, i32 0, i32 0
  %8 = getelementptr inbounds %"struct.std::_Vector_base<int, std::allocator<int>>::_Vector_impl_data", ptr %7, i32 0, i32 0
  %9 = load ptr, ptr %8, align 8
  %10 = ptrtoint ptr %6 to i64
  %11 = ptrtoint ptr %9 to i64
  %12 = sub i64 %10, %11
  %13 = sdiv exact i64 %12, 4
  ret i64 %13
}

; Function Attrs: mustprogress nounwind uwtable
define linkonce_odr noundef ptr @_ZNSt6vectorIiSaIiEE4dataEv(ptr noundef nonnull align 8 dereferenceable(24) %0) #3 comdat align 2 {
  %2 = alloca ptr, align 8
  store ptr %0, ptr %2, align 8
  %3 = load ptr, ptr %2, align 8
  %4 = getelementptr inbounds %"struct.std::_Vector_base.93", ptr %3, i32 0, i32 0
  %5 = getelementptr inbounds %"struct.std::_Vector_base<int, std::allocator<int>>::_Vector_impl_data", ptr %4, i32 0, i32 0
  %6 = load ptr, ptr %5, align 8
  %7 = call noundef ptr @_ZNKSt6vectorIiSaIiEE11_M_data_ptrIiEEPT_S4_(ptr noundef nonnull align 8 dereferenceable(24) %3, ptr noundef %6) #5
  ret ptr %7
}

; Function Attrs: mustprogress uwtable
define linkonce_odr void @_ZNSt6vectorIiSaIiEE6resizeEm(ptr noundef nonnull align 8 dereferenceable(24) %0, i64 noundef %1) #0 comdat align 2 {
  %3 = alloca ptr, align 8
  %4 = alloca i64, align 8
  store ptr %0, ptr %3, align 8
  store i64 %1, ptr %4, align 8
  %5 = load ptr, ptr %3, align 8
  %6 = load i64, ptr %4, align 8
  %7 = call noundef i64 @_ZNKSt6vectorIiSaIiEE4sizeEv(ptr noundef nonnull align 8 dereferenceable(24) %5) #5
  %8 = icmp ugt i64 %6, %7
  br i1 %8, label %9, label %13

9:                                                ; preds = %2
  %10 = load i64, ptr %4, align 8
  %11 = call noundef i64 @_ZNKSt6vectorIiSaIiEE4sizeEv(ptr noundef nonnull align 8 dereferenceable(24) %5) #5
  %12 = sub i64 %10, %11
  call void @_ZNSt6vectorIiSaIiEE17_M_default_appendEm(ptr noundef nonnull align 8 dereferenceable(24) %5, i64 noundef %12)
  br label %24

13:                                               ; preds = %2
  %14 = load i64, ptr %4, align 8
  %15 = call noundef i64 @_ZNKSt6vectorIiSaIiEE4sizeEv(ptr noundef nonnull align 8 dereferenceable(24) %5) #5
  %16 = icmp ult i64 %14, %15
  br i1 %16, label %17, label %23

17:                                               ; preds = %13
  %18 = getelementptr inbounds %"struct.std::_Vector_base.93", ptr %5, i32 0, i32 0
  %19 = getelementptr inbounds %"struct.std::_Vector_base<int, std::allocator<int>>::_Vector_impl_data", ptr %18, i32 0, i32 0
  %20 = load ptr, ptr %19, align 8
  %21 = load i64, ptr %4, align 8
  %22 = getelementptr inbounds i32, ptr %20, i64 %21
  call void @_ZNSt6vectorIiSaIiEE15_M_erase_at_endEPi(ptr noundef nonnull align 8 dereferenceable(24) %5, ptr noundef %22) #5
  br label %23

23:                                               ; preds = %17, %13
  br label %24

24:                                               ; preds = %23, %9
  ret void
}

; Function Attrs: mustprogress nounwind uwtable
define linkonce_odr noundef nonnull align 8 dereferenceable(56) ptr @_ZNSt6vectorI15AtomToThreadMapSaIS0_EEixEm(ptr noundef nonnull align 8 dereferenceable(24) %0, i64 noundef %1) #3 comdat align 2 {
  %3 = alloca ptr, align 8
  %4 = alloca i64, align 8
  store ptr %0, ptr %3, align 8
  store i64 %1, ptr %4, align 8
  %5 = load ptr, ptr %3, align 8
  %6 = getelementptr inbounds %"struct.std::_Vector_base.165", ptr %5, i32 0, i32 0
  %7 = getelementptr inbounds %"struct.std::_Vector_base<AtomToThreadMap, std::allocator<AtomToThreadMap>>::_Vector_impl_data", ptr %6, i32 0, i32 0
  %8 = load ptr, ptr %7, align 8
  %9 = load i64, ptr %4, align 8
  %10 = getelementptr inbounds %struct.AtomToThreadMap, ptr %8, i64 %9
  ret ptr %10
}

; Function Attrs: norecurse nounwind uwtable
define internal void @_ZN11PmeAtomCommC2EP10tmpi_comm_iiib.omp_outlined(ptr noalias noundef %0, ptr noalias noundef %1, ptr noundef %2) #4 personality ptr @__gxx_personality_v0 {
  %4 = alloca ptr, align 8
  %5 = alloca ptr, align 8
  %6 = alloca ptr, align 8
  %7 = alloca i32, align 4
  %8 = alloca i32, align 4
  %9 = alloca i32, align 4
  %10 = alloca i32, align 4
  %11 = alloca i32, align 4
  %12 = alloca i32, align 4
  %13 = alloca i32, align 4
  %14 = alloca i32, align 4
  %15 = alloca i32, align 4
  %16 = alloca ptr, align 8
  %17 = alloca i32, align 4
  %18 = alloca ptr, align 8
  store ptr %0, ptr %4, align 8
  store ptr %1, ptr %5, align 8
  store ptr %2, ptr %6, align 8
  %19 = load ptr, ptr %6, align 8
  %20 = getelementptr inbounds %class.PmeAtomComm, ptr %19, i32 0, i32 20
  %21 = load i32, ptr %20, align 8
  store i32 %21, ptr %8, align 4
  %22 = load i32, ptr %8, align 4
  %23 = sub nsw i32 %22, 0
  %24 = sdiv i32 %23, 1
  %25 = sub nsw i32 %24, 1
  store i32 %25, ptr %9, align 4
  store i32 0, ptr %10, align 4
  %26 = load i32, ptr %8, align 4
  %27 = icmp slt i32 0, %26
  br i1 %27, label %28, label %94

28:                                               ; preds = %3
  store i32 0, ptr %11, align 4
  %29 = load i32, ptr %9, align 4
  store i32 %29, ptr %12, align 4
  store i32 1, ptr %13, align 4
  store i32 0, ptr %14, align 4
  %30 = load ptr, ptr %4, align 8
  %31 = load i32, ptr %30, align 4
  call void @__kmpc_for_static_init_4(ptr @1, i32 %31, i32 34, ptr %14, ptr %11, ptr %12, ptr %13, i32 1, i32 1)
  %32 = load i32, ptr %12, align 4
  %33 = load i32, ptr %9, align 4
  %34 = icmp sgt i32 %32, %33
  br i1 %34, label %35, label %37

35:                                               ; preds = %28
  %36 = load i32, ptr %9, align 4
  br label %39

37:                                               ; preds = %28
  %38 = load i32, ptr %12, align 4
  br label %39

39:                                               ; preds = %37, %35
  %40 = phi i32 [ %36, %35 ], [ %38, %37 ]
  store i32 %40, ptr %12, align 4
  %41 = load i32, ptr %11, align 4
  store i32 %41, ptr %7, align 4
  br label %42

42:                                               ; preds = %87, %39
  %43 = load i32, ptr %7, align 4
  %44 = load i32, ptr %12, align 4
  %45 = icmp sle i32 %43, %44
  br i1 %45, label %46, label %90

46:                                               ; preds = %42
  %47 = load i32, ptr %7, align 4
  %48 = mul nsw i32 %47, 1
  %49 = add nsw i32 0, %48
  store i32 %49, ptr %15, align 4
  %50 = getelementptr inbounds %class.PmeAtomComm, ptr %19, i32 0, i32 22
  %51 = load i32, ptr %15, align 4
  %52 = sext i32 %51 to i64
  %53 = call noundef nonnull align 8 dereferenceable(56) ptr @_ZNSt6vectorI15AtomToThreadMapSaIS0_EEixEm(ptr noundef nonnull align 8 dereferenceable(24) %50, i64 noundef %52) #5
  %54 = getelementptr inbounds %struct.AtomToThreadMap, ptr %53, i32 0, i32 1
  %55 = getelementptr inbounds %class.PmeAtomComm, ptr %19, i32 0, i32 20
  %56 = load i32, ptr %55, align 8
  %57 = add nsw i32 %56, 128
  %58 = sext i32 %57 to i64
  invoke void @_ZNSt6vectorIiSaIiEE6resizeEm(ptr noundef nonnull align 8 dereferenceable(24) %54, i64 noundef %58)
          to label %59 unwind label %72

59:                                               ; preds = %46
  %60 = getelementptr inbounds %class.PmeAtomComm, ptr %19, i32 0, i32 22
  %61 = load i32, ptr %15, align 4
  %62 = sext i32 %61 to i64
  %63 = call noundef nonnull align 8 dereferenceable(56) ptr @_ZNSt6vectorI15AtomToThreadMapSaIS0_EEixEm(ptr noundef nonnull align 8 dereferenceable(24) %60, i64 noundef %62) #5
  %64 = getelementptr inbounds %struct.AtomToThreadMap, ptr %63, i32 0, i32 1
  %65 = call noundef ptr @_ZNSt6vectorIiSaIiEE4dataEv(ptr noundef nonnull align 8 dereferenceable(24) %64) #5
  %66 = getelementptr inbounds i32, ptr %65, i64 64
  %67 = getelementptr inbounds %class.PmeAtomComm, ptr %19, i32 0, i32 22
  %68 = load i32, ptr %15, align 4
  %69 = sext i32 %68 to i64
  %70 = call noundef nonnull align 8 dereferenceable(56) ptr @_ZNSt6vectorI15AtomToThreadMapSaIS0_EEixEm(ptr noundef nonnull align 8 dereferenceable(24) %67, i64 noundef %69) #5
  %71 = getelementptr inbounds %struct.AtomToThreadMap, ptr %70, i32 0, i32 0
  store ptr %66, ptr %71, align 8
  br label %85

72:                                               ; preds = %46
  %73 = landingpad { ptr, i32 }
          catch ptr @_ZTISt9exception
          catch ptr null
  %74 = extractvalue { ptr, i32 } %73, 0
  store ptr %74, ptr %16, align 8
  %75 = extractvalue { ptr, i32 } %73, 1
  store i32 %75, ptr %17, align 4
  br label %76

76:                                               ; preds = %72
  %77 = load i32, ptr %17, align 4
  %78 = call i32 @llvm.eh.typeid.for(ptr @_ZTISt9exception) #5
  %79 = icmp eq i32 %77, %78
  br i1 %79, label %80, label %98

80:                                               ; preds = %76
  %81 = load ptr, ptr %16, align 8
  %82 = call ptr @__cxa_begin_catch(ptr %81) #5
  store ptr %82, ptr %18, align 8
  %83 = load ptr, ptr %18, align 8
  invoke void @_ZN3gmx28processExceptionAsFatalErrorERKSt9exception(ptr noundef nonnull align 8 dereferenceable(8) %83) #16
          to label %84 unwind label %95

84:                                               ; preds = %80
  unreachable

85:                                               ; preds = %59
  br label %86

86:                                               ; preds = %85
  br label %87

87:                                               ; preds = %86
  %88 = load i32, ptr %7, align 4
  %89 = add nsw i32 %88, 1
  store i32 %89, ptr %7, align 4
  br label %42

90:                                               ; preds = %42
  br label %91

91:                                               ; preds = %90
  %92 = load ptr, ptr %4, align 8
  %93 = load i32, ptr %92, align 4
  call void @__kmpc_for_static_fini(ptr @1, i32 %93)
  br label %94

94:                                               ; preds = %91, %3
  ret void

95:                                               ; preds = %80
  %96 = landingpad { ptr, i32 }
          catch ptr null
  %97 = extractvalue { ptr, i32 } %96, 0
  call void @__clang_call_terminate(ptr %97) #17
  unreachable

98:                                               ; preds = %76
  %99 = load ptr, ptr %16, align 8
  call void @__clang_call_terminate(ptr %99) #17
  unreachable
}