; Function Attrs: norecurse nounwind uwtable
define internal void @_ZN11PmeAtomCommC2EP10tmpi_comm_iiib.omp_outlined(ptr noalias nocapture noundef readonly %0, ptr noalias nocapture readnone %1, ptr nocapture noundef readonly %2) #6 personality ptr @__gxx_personality_v0 {
  %4 = alloca i32, align 4
  %5 = alloca i32, align 4
  %6 = alloca i32, align 4
  %7 = alloca i32, align 4
  %8 = getelementptr inbounds i8, ptr %2, i64 312
  %9 = load i32, ptr %8, align 8
  %10 = icmp sgt i32 %9, 0
  br i1 %10, label %11, label %57

11:                                               ; preds = %3
  %12 = add nsw i32 %9, -1
  store i32 0, ptr %4, align 4
  store i32 %12, ptr %5, align 4
  store i32 1, ptr %6, align 4
  store i32 0, ptr %7, align 4
  %13 = load i32, ptr %0, align 4
  call void @__kmpc_for_static_init_4(ptr nonnull @1, i32 %13, i32 34, ptr nonnull %7, ptr nonnull %4, ptr nonnull %5, ptr nonnull %6, i32 1, i32 1)
  %14 = load i32, ptr %5, align 4
  %15 = call i32 @llvm.smin.i32(i32 %14, i32 %12)
  store i32 %15, ptr %5, align 4
  %16 = load i32, ptr %4, align 4
  %.not17 = icmp sgt i32 %16, %15
  br i1 %.not17, label %._crit_edge, label %.lr.ph

.lr.ph:                                           ; preds = %11
  %17 = getelementptr inbounds i8, ptr %2, i64 344
  %18 = sext i32 %16 to i64
  br label %19

19:                                               ; preds = %.lr.ph, %_ZNSt6vectorIiSaIiEE6resizeEm.exit
  %20 = phi i32 [ %15, %.lr.ph ], [ %41, %_ZNSt6vectorIiSaIiEE6resizeEm.exit ]
  %indvars.iv = phi i64 [ %18, %.lr.ph ], [ %indvars.iv.next, %_ZNSt6vectorIiSaIiEE6resizeEm.exit ]
  %21 = load ptr, ptr %17, align 8
  %22 = getelementptr inbounds %struct.AtomToThreadMap, ptr %21, i64 %indvars.iv, i32 1
  %23 = load i32, ptr %8, align 8
  %24 = add nsw i32 %23, 128
  %25 = sext i32 %24 to i64
  %26 = getelementptr inbounds i8, ptr %22, i64 8
  %27 = load ptr, ptr %26, align 8
  %28 = load ptr, ptr %22, align 8
  %29 = ptrtoint ptr %27 to i64
  %30 = ptrtoint ptr %28 to i64
  %31 = sub i64 %29, %30
  %32 = ashr exact i64 %31, 2
  %33 = icmp ult i64 %32, %25
  br i1 %33, label %34, label %36

34:                                               ; preds = %19
  %35 = sub nsw i64 %25, %32
  invoke void @_ZNSt6vectorIiSaIiEE17_M_default_appendEm(ptr noundef nonnull align 8 dereferenceable(24) %22, i64 noundef %35)
          to label %._ZNSt6vectorIiSaIiEE6resizeEm.exit_crit_edge unwind label %48

._ZNSt6vectorIiSaIiEE6resizeEm.exit_crit_edge:    ; preds = %34
  %.pre = load i32, ptr %5, align 4
  br label %_ZNSt6vectorIiSaIiEE6resizeEm.exit

36:                                               ; preds = %19
  %37 = icmp ugt i64 %32, %25
  br i1 %37, label %38, label %_ZNSt6vectorIiSaIiEE6resizeEm.exit

38:                                               ; preds = %36
  %39 = getelementptr inbounds i32, ptr %28, i64 %25
  %.not.i.i = icmp eq ptr %27, %39
  br i1 %.not.i.i, label %_ZNSt6vectorIiSaIiEE6resizeEm.exit, label %40

40:                                               ; preds = %38
  store ptr %39, ptr %26, align 8
  br label %_ZNSt6vectorIiSaIiEE6resizeEm.exit

_ZNSt6vectorIiSaIiEE6resizeEm.exit:               ; preds = %._ZNSt6vectorIiSaIiEE6resizeEm.exit_crit_edge, %40, %38, %36
  %41 = phi i32 [ %.pre, %._ZNSt6vectorIiSaIiEE6resizeEm.exit_crit_edge ], [ %20, %40 ], [ %20, %38 ], [ %20, %36 ]
  %42 = load ptr, ptr %17, align 8
  %43 = getelementptr inbounds %struct.AtomToThreadMap, ptr %42, i64 %indvars.iv
  %44 = getelementptr inbounds i8, ptr %43, i64 8
  %45 = load ptr, ptr %44, align 8
  %46 = getelementptr inbounds i8, ptr %45, i64 256
  store ptr %46, ptr %43, align 8
  %indvars.iv.next = add nsw i64 %indvars.iv, 1
  %47 = sext i32 %41 to i64
  %.not.not = icmp slt i64 %indvars.iv, %47
  br i1 %.not.not, label %19, label %._crit_edge

48:                                               ; preds = %34
  %49 = landingpad { ptr, i32 }
          catch ptr @_ZTISt9exception
          catch ptr null
  %50 = extractvalue { ptr, i32 } %49, 0
  %51 = extractvalue { ptr, i32 } %49, 1
  %52 = call i32 @llvm.eh.typeid.for(ptr nonnull @_ZTISt9exception) #7
  %53 = icmp eq i32 %51, %52
  br i1 %53, label %54, label %61

54:                                               ; preds = %48
  %55 = call ptr @__cxa_begin_catch(ptr %50) #7
  invoke void @_ZN3gmx28processExceptionAsFatalErrorERKSt9exception(ptr noundef nonnull align 8 dereferenceable(8) %55) #25
          to label %56 unwind label %58

56:                                               ; preds = %54
  unreachable

._crit_edge:                                      ; preds = %_ZNSt6vectorIiSaIiEE6resizeEm.exit, %11
  call void @__kmpc_for_static_fini(ptr nonnull @1, i32 %13)
  br label %57

57:                                               ; preds = %._crit_edge, %3
  ret void

58:                                               ; preds = %54
  %59 = landingpad { ptr, i32 }
          catch ptr null
  %60 = extractvalue { ptr, i32 } %59, 0
  call void @__clang_call_terminate(ptr %60) #28
  unreachable

61:                                               ; preds = %48
  call void @__clang_call_terminate(ptr %50) #28
  unreachable
}